; Function Attrs: nofree norecurse nosync nounwind memory(readwrite, inaccessiblemem: none) uwtable
define range(i32 0, 2) i32 @Tas_StorePattern(ptr noundef readonly captures(none) %0, ptr noundef readonly captures(none) %1, ptr noundef readonly captures(none) %2) local_unnamed_addr #16 {
  %4 = getelementptr i8, ptr %2, i64 8
  %.val7 = load ptr, ptr %4, align 8, !tbaa !41
  %5 = getelementptr i8, ptr %2, i64 4
  %.val = load i32, ptr %5, align 4, !tbaa !38
  %6 = icmp sgt i32 %.val, 0
  %7 = getelementptr i8, ptr %0, i64 8
  %wide.trip.count.i = zext nneg i32 %.val to i64
  br i1 %6, label %.split.us, label %Tas_StorePatternTry.exit.thread

.split.us:                                        ; preds = %3
  %8 = getelementptr i8, ptr %1, i64 8
  %.val35.i.us = load ptr, ptr %8, align 8, !tbaa !47
  br label %.lr.ph.i.us

.lr.ph.i.us:                                      ; preds = %Tas_StorePatternTry.exit.us, %.split.us
  %.015.us = phi i32 [ 1, %.split.us ], [ %27, %Tas_StorePatternTry.exit.us ]
  %9 = shl nuw i32 1, %.015.us
  br label %10

10:                                               ; preds = %28, %.lr.ph.i.us
  %indvars.iv.i.us = phi i64 [ 0, %.lr.ph.i.us ], [ %indvars.iv.next.i.us, %28 ]
  %11 = getelementptr inbounds nuw i32, ptr %.val7, i64 %indvars.iv.i.us
  %12 = load i32, ptr %11, align 4, !tbaa !75
  %13 = ashr i32 %12, 1
  %14 = sext i32 %13 to i64
  %15 = getelementptr inbounds ptr, ptr %.val35.i.us, i64 %14
  %16 = load ptr, ptr %15, align 8, !tbaa !119
  %17 = load i32, ptr %16, align 4, !tbaa !75
  %18 = and i32 %17, %9
  %.not.i.us = icmp eq i32 %18, 0
  br i1 %.not.i.us, label %28, label %19

19:                                               ; preds = %10
  %.val36.i.us = load ptr, ptr %7, align 8, !tbaa !47
  %20 = getelementptr inbounds ptr, ptr %.val36.i.us, i64 %14
  %21 = load ptr, ptr %20, align 8, !tbaa !119
  %22 = load i32, ptr %21, align 4, !tbaa !75
  %23 = lshr i32 %22, %.015.us
  %24 = xor i32 %23, %12
  %25 = and i32 %24, 1
  %26 = icmp eq i32 %25, 0
  br i1 %26, label %Tas_StorePatternTry.exit.us, label %28

Tas_StorePatternTry.exit.us:                      ; preds = %19
  %27 = add nuw nsw i32 %.015.us, 1
  %exitcond.not = icmp eq i32 %27, 32
  br i1 %exitcond.not, label %Tas_StorePatternTry.exit.thread, label %.lr.ph.i.us, !llvm.loop !154

28:                                               ; preds = %19, %10
  %indvars.iv.next.i.us = add nuw nsw i64 %indvars.iv.i.us, 1
  %exitcond.not.i.us = icmp eq i64 %indvars.iv.next.i.us, %wide.trip.count.i
  br i1 %exitcond.not.i.us, label %.preheader.i, label %10, !llvm.loop !152

.preheader.i:                                     ; preds = %28
  %.val34.i = load ptr, ptr %7, align 8, !tbaa !47
  br label %29

29:                                               ; preds = %48, %.preheader.i
  %indvars.iv43.i = phi i64 [ 0, %.preheader.i ], [ %indvars.iv.next44.i, %48 ]
  %30 = getelementptr inbounds nuw i32, ptr %.val7, i64 %indvars.iv43.i
  %31 = load i32, ptr %30, align 4, !tbaa !75
  %32 = ashr i32 %31, 1
  %33 = sext i32 %32 to i64
  %34 = getelementptr inbounds ptr, ptr %.val34.i, i64 %33
  %35 = load ptr, ptr %34, align 8, !tbaa !119
  %36 = getelementptr inbounds ptr, ptr %.val35.i.us, i64 %33
  %37 = load ptr, ptr %36, align 8, !tbaa !119
  %38 = load i32, ptr %37, align 4, !tbaa !75
  %39 = or i32 %38, %9
  store i32 %39, ptr %37, align 4, !tbaa !75
  %40 = load i32, ptr %35, align 4, !tbaa !75
  %41 = lshr i32 %40, %.015.us
  %42 = load i32, ptr %30, align 4, !tbaa !75
  %43 = xor i32 %41, %42
  %44 = and i32 %43, 1
  %45 = icmp eq i32 %44, 0
  br i1 %45, label %46, label %48

46:                                               ; preds = %29
  %47 = xor i32 %40, %9
  store i32 %47, ptr %35, align 4, !tbaa !75
  br label %48

48:                                               ; preds = %46, %29
  %indvars.iv.next44.i = add nuw nsw i64 %indvars.iv43.i, 1
  %exitcond47.not.i = icmp eq i64 %indvars.iv.next44.i, %wide.trip.count.i
  br i1 %exitcond47.not.i, label %Tas_StorePatternTry.exit.thread, label %29, !llvm.loop !153

Tas_StorePatternTry.exit.thread:                  ; preds = %Tas_StorePatternTry.exit.us, %48, %3
  %49 = phi i32 [ 1, %3 ], [ 1, %48 ], [ 0, %Tas_StorePatternTry.exit.us ]
  ret i32 %49
}